target datalayout = "e-m:e-p270:32:32-p271:32:32-p272:64:64-i64:64-i128:128-f80:128-n8:16:32:64-S128"
target triple = "x86_64-pc-linux-gnu"

%struct.QMetaObject = type { %"struct.QMetaObject::Data" }
%"struct.QMetaObject::Data" = type { %"struct.QMetaObject::SuperData", ptr, ptr, ptr, ptr, ptr, ptr }
%"struct.QMetaObject::SuperData" = type { ptr }
%class.FilterAction = type { %class.QAction, i32, i32, i32, %class.QString }
%class.QAction = type { %class.QObject }
%class.QObject = type { ptr, %class.QScopedPointer }
%class.QScopedPointer = type { ptr }
%class.QString = type { %struct.QArrayDataPointer }
%struct.QArrayDataPointer = type { ptr, ptr, i64 }

@_ZTV12FilterAction = external unnamed_addr constant { [14 x ptr] }, align 8
@.str = private unnamed_addr constant [16 x i8] c"Apply as Filter\00", align 1
@.str.1 = private unnamed_addr constant [18 x i8] c"Prepare as Filter\00", align 1
@.str.2 = private unnamed_addr constant [5 x i8] c"Find\00", align 1
@.str.3 = private unnamed_addr constant [9 x i8] c"Colorize\00", align 1
@.str.4 = private unnamed_addr constant [8 x i8] c"Look Up\00", align 1
@.str.5 = private unnamed_addr constant [5 x i8] c"Copy\00", align 1
@.str.6 = private unnamed_addr constant [8 x i8] c"UNKNOWN\00", align 1
@_ZN7QObject16staticMetaObjectE = external global %struct.QMetaObject, align 8

; Function Attrs: inlinehint mustprogress null_pointer_is_valid sspstrong uwtable
define linkonce_odr void @_ZN7QObject2trEPKcS1_i(ptr dead_on_unwind noalias writable sret(%class.QString) align 8 %0, ptr noundef %1, ptr noundef %2, i32 noundef %3) #8 comdat align 2 {
  %5 = alloca ptr, align 8
  %6 = alloca ptr, align 8
  %7 = alloca ptr, align 8
  %8 = alloca i32, align 4
  store ptr %0, ptr %5, align 8
  store ptr %1, ptr %6, align 8
  store ptr %2, ptr %7, align 8
  store i32 %3, ptr %8, align 4
  %9 = load ptr, ptr %6, align 8
  %10 = load ptr, ptr %7, align 8
  %11 = load i32, ptr %8, align 4
  call void @_ZNK11QMetaObject2trEPKcS1_i(ptr dead_on_unwind writable sret(%class.QString) align 8 %0, ptr noundef align 8 dereferenceable_or_null(56) @_ZN7QObject16staticMetaObjectE, ptr noundef %9, ptr noundef %10, i32 noundef %11)
  ret void
}

; Function Attrs: mustprogress nounwind null_pointer_is_valid sspstrong uwtable
define linkonce_odr void @_ZN17QArrayDataPointerIDsEC2Ev(ptr noundef align 8 dereferenceable_or_null(24) %0) unnamed_addr #7 comdat align 2 {
  %2 = alloca ptr, align 8
  store ptr %0, ptr %2, align 8
  %3 = load ptr, ptr %2, align 8
  %4 = getelementptr inbounds nuw %struct.QArrayDataPointer, ptr %3, i32 0, i32 0
  store ptr null, ptr %4, align 8
  %5 = getelementptr inbounds nuw %struct.QArrayDataPointer, ptr %3, i32 0, i32 1
  store ptr null, ptr %5, align 8
  %6 = getelementptr inbounds nuw %struct.QArrayDataPointer, ptr %3, i32 0, i32 2
  store i64 0, ptr %6, align 8
  ret void
}

; Function Attrs: mustprogress null_pointer_is_valid sspstrong uwtable
define void @_ZN12FilterAction10actionNameENS_6ActionE(ptr dead_on_unwind noalias writable sret(%class.QString) align 8 %0, i32 noundef %1) #0 align 2 {
  %3 = alloca ptr, align 8
  %4 = alloca i32, align 4
  store ptr %0, ptr %3, align 8
  store i32 %1, ptr %4, align 4
  %5 = load i32, ptr %4, align 4
  switch i32 %5, label %12 [
    i32 0, label %6
    i32 4, label %7
    i32 3, label %8
    i32 1, label %9
    i32 5, label %10
    i32 2, label %11
  ]

6:                                                ; preds = %2
  call void @_ZN7QObject2trEPKcS1_i(ptr dead_on_unwind writable sret(%class.QString) align 8 %0, ptr noundef @.str, ptr noundef null, i32 noundef -1)
  br label %13

7:                                                ; preds = %2
  call void @_ZN7QObject2trEPKcS1_i(ptr dead_on_unwind writable sret(%class.QString) align 8 %0, ptr noundef @.str.1, ptr noundef null, i32 noundef -1)
  br label %13

8:                                                ; preds = %2
  call void @_ZN7QObject2trEPKcS1_i(ptr dead_on_unwind writable sret(%class.QString) align 8 %0, ptr noundef @.str.2, ptr noundef null, i32 noundef -1)
  br label %13

9:                                                ; preds = %2
  call void @_ZN7QObject2trEPKcS1_i(ptr dead_on_unwind writable sret(%class.QString) align 8 %0, ptr noundef @.str.3, ptr noundef null, i32 noundef -1)
  br label %13

10:                                               ; preds = %2
  call void @_ZN7QObject2trEPKcS1_i(ptr dead_on_unwind writable sret(%class.QString) align 8 %0, ptr noundef @.str.4, ptr noundef null, i32 noundef -1)
  br label %13

11:                                               ; preds = %2
  call void @_ZN7QObject2trEPKcS1_i(ptr dead_on_unwind writable sret(%class.QString) align 8 %0, ptr noundef @.str.5, ptr noundef null, i32 noundef -1)
  br label %13

12:                                               ; preds = %2
  call void @_ZN7QObject2trEPKcS1_i(ptr dead_on_unwind writable sret(%class.QString) align 8 %0, ptr noundef @.str.6, ptr noundef null, i32 noundef -1)
  br label %13

13:                                               ; preds = %12, %11, %10, %9, %8, %7, %6
  ret void
}

; Function Attrs: inlinehint mustprogress nounwind null_pointer_is_valid sspstrong uwtable
define linkonce_odr void @_ZN7QStringC2Ev(ptr noundef align 8 dereferenceable_or_null(24) %0) unnamed_addr #2 comdat align 2 {
  %2 = alloca ptr, align 8
  store ptr %0, ptr %2, align 8
  %3 = load ptr, ptr %2, align 8
  %4 = getelementptr inbounds nuw %class.QString, ptr %3, i32 0, i32 0
  call void @_ZN17QArrayDataPointerIDsEC2Ev(ptr noundef align 8 dereferenceable_or_null(24) %4) #5
  ret void
}

; Function Attrs: mustprogress null_pointer_is_valid sspstrong uwtable
define void @_ZN12FilterActionC2EP7QObjectNS_6ActionE(ptr noundef align 8 dereferenceable_or_null(56) %0, ptr noundef %1, i32 noundef %2) unnamed_addr #0 align 2 personality ptr @__gxx_personality_v0 {
  %4 = alloca ptr, align 8
  %5 = alloca ptr, align 8
  %6 = alloca i32, align 4
  %7 = alloca %class.QString, align 8
  %8 = alloca ptr, align 8
  %9 = alloca i32, align 4
  store ptr %0, ptr %4, align 8
  store ptr %1, ptr %5, align 8
  store i32 %2, ptr %6, align 4
  %10 = load ptr, ptr %4, align 8
  %11 = load ptr, ptr %5, align 8
  call void @_ZN7QActionC2EP7QObject(ptr noundef align 8 dereferenceable_or_null(16) %10, ptr noundef %11)
  store ptr getelementptr inbounds inrange(-16, 96) ({ [14 x ptr] }, ptr @_ZTV12FilterAction, i32 0, i32 0, i32 2), ptr %10, align 8
  %12 = getelementptr inbounds nuw %class.FilterAction, ptr %10, i32 0, i32 1
  %13 = load i32, ptr %6, align 4
  store i32 %13, ptr %12, align 8
  %14 = getelementptr inbounds nuw %class.FilterAction, ptr %10, i32 0, i32 2
  store i32 0, ptr %14, align 4
  %15 = getelementptr inbounds nuw %class.FilterAction, ptr %10, i32 0, i32 3
  store i32 4, ptr %15, align 8
  %16 = getelementptr inbounds nuw %class.FilterAction, ptr %10, i32 0, i32 4
  call void @_ZN7QStringC2Ev(ptr noundef align 8 dereferenceable_or_null(24) %16) #5
  call void @llvm.lifetime.start.p0(i64 24, ptr %7) #5
  %17 = load i32, ptr %6, align 4
  invoke void @_ZN12FilterAction10actionNameENS_6ActionE(ptr dead_on_unwind writable sret(%class.QString) align 8 %7, i32 noundef %17)
          to label %18 unwind label %20

18:                                               ; preds = %3
  invoke void @_ZN7QAction7setTextERK7QString(ptr noundef align 8 dereferenceable_or_null(16) %10, ptr noundef align 8 dereferenceable(24) %7)
          to label %19 unwind label %24

19:                                               ; preds = %18
  call void @_ZN7QStringD2Ev(ptr noundef align 8 dereferenceable_or_null(24) %7) #5
  call void @llvm.lifetime.end.p0(i64 24, ptr %7) #5
  ret void

20:                                               ; preds = %3
  %21 = landingpad { ptr, i32 }
          cleanup
  %22 = extractvalue { ptr, i32 } %21, 0
  store ptr %22, ptr %8, align 8
  %23 = extractvalue { ptr, i32 } %21, 1
  store i32 %23, ptr %9, align 4
  br label %28

24:                                               ; preds = %18
  %25 = landingpad { ptr, i32 }
          cleanup
  %26 = extractvalue { ptr, i32 } %25, 0
  store ptr %26, ptr %8, align 8
  %27 = extractvalue { ptr, i32 } %25, 1
  store i32 %27, ptr %9, align 4
  call void @_ZN7QStringD2Ev(ptr noundef align 8 dereferenceable_or_null(24) %7) #5
  br label %28

28:                                               ; preds = %24, %20
  call void @llvm.lifetime.end.p0(i64 24, ptr %7) #5
  call void @_ZN7QStringD2Ev(ptr noundef align 8 dereferenceable_or_null(24) %16) #5
  call void @_ZN7QActionD2Ev(ptr noundef align 8 dereferenceable_or_null(16) %10) #5
  br label %29

29:                                               ; preds = %28
  %30 = load ptr, ptr %8, align 8
  %31 = load i32, ptr %9, align 4
  %32 = insertvalue { ptr, i32 } poison, ptr %30, 0
  %33 = insertvalue { ptr, i32 } %32, i32 %31, 1
  resume { ptr, i32 } %33
}