; Function Attrs: mustprogress null_pointer_is_valid sspstrong uwtable
define void @_ZN12FilterActionC2EP7QObjectNS_6ActionE(ptr noundef align 8 dereferenceable_or_null(56) %0, ptr noundef %1, i32 noundef %2) unnamed_addr #0 align 2 personality ptr @__gxx_personality_v0 {
  %4 = alloca %class.QString, align 8
  tail call void @_ZN7QActionC2EP7QObject(ptr noundef align 8 dereferenceable_or_null(16) %0, ptr noundef %1)
  store ptr getelementptr inbounds nuw inrange(-16, 96) (i8, ptr @_ZTV12FilterAction, i64 16), ptr %0, align 8
  %5 = getelementptr inbounds nuw i8, ptr %0, i64 16
  store i32 %2, ptr %5, align 8
  %6 = getelementptr inbounds nuw i8, ptr %0, i64 20
  store i32 0, ptr %6, align 4
  %7 = getelementptr inbounds nuw i8, ptr %0, i64 24
  store i32 4, ptr %7, align 8
  %8 = getelementptr inbounds nuw i8, ptr %0, i64 32
  tail call void @llvm.memset.p0.i64(ptr noundef nonnull align 8 dereferenceable(24) dereferenceable_or_null(24) %8, i8 0, i64 24, i1 false)
  call void @llvm.lifetime.start.p0(i64 24, ptr nonnull %4) #20
  %9 = icmp ult i32 %2, 6
  br i1 %9, label %switch.lookup, label %11

switch.lookup:                                    ; preds = %3
  %10 = zext nneg i32 %2 to i64
  %switch.gep = getelementptr inbounds nuw [6 x ptr], ptr @switch.table._ZN12FilterAction10actionNameENS_6ActionE, i64 0, i64 %10
  %switch.load = load ptr, ptr %switch.gep, align 8
  br label %11

11:                                               ; preds = %3, %switch.lookup
  %.str.6.sink.i = phi ptr [ %switch.load, %switch.lookup ], [ @.str.6, %3 ]
  invoke void @_ZNK11QMetaObject2trEPKcS1_i(ptr dead_on_unwind nonnull writable sret(%class.QString) align 8 %4, ptr noundef nonnull align 8 dereferenceable_or_null(56) @_ZN7QObject16staticMetaObjectE, ptr noundef nonnull %.str.6.sink.i, ptr noundef null, i32 noundef -1)
          to label %_ZN12FilterAction10actionNameENS_6ActionE.exit unwind label %17

_ZN12FilterAction10actionNameENS_6ActionE.exit:   ; preds = %11
  invoke void @_ZN7QAction7setTextERK7QString(ptr noundef align 8 dereferenceable_or_null(16) %0, ptr noundef nonnull align 8 dereferenceable(24) %4)
          to label %12 unwind label %19

12:                                               ; preds = %_ZN12FilterAction10actionNameENS_6ActionE.exit
  %13 = load ptr, ptr %4, align 8
  %.not.i.i.i = icmp eq ptr %13, null
  br i1 %.not.i.i.i, label %_ZN7QStringD2Ev.exit, label %_ZN17QArrayDataPointerIDsE5derefEv.exit.i.i

_ZN17QArrayDataPointerIDsE5derefEv.exit.i.i:      ; preds = %12
  %14 = atomicrmw sub ptr %13, i32 1 seq_cst, align 4
  %.not.i.i = icmp eq i32 %14, 1
  br i1 %.not.i.i, label %15, label %_ZN7QStringD2Ev.exit

15:                                               ; preds = %_ZN17QArrayDataPointerIDsE5derefEv.exit.i.i
  %16 = load ptr, ptr %4, align 8
  call void @_ZN10QArrayData10deallocateEPS_xx(ptr noundef %16, i64 noundef 2, i64 noundef 8) #20
  br label %_ZN7QStringD2Ev.exit

_ZN7QStringD2Ev.exit:                             ; preds = %12, %_ZN17QArrayDataPointerIDsE5derefEv.exit.i.i, %15
  call void @llvm.lifetime.end.p0(i64 24, ptr nonnull %4) #20
  ret void

17:                                               ; preds = %11
  %18 = landingpad { ptr, i32 }
          cleanup
  br label %_ZN7QStringD2Ev.exit10

19:                                               ; preds = %_ZN12FilterAction10actionNameENS_6ActionE.exit
  %20 = landingpad { ptr, i32 }
          cleanup
  %21 = load ptr, ptr %4, align 8
  %.not.i.i.i7 = icmp eq ptr %21, null
  br i1 %.not.i.i.i7, label %_ZN7QStringD2Ev.exit10, label %_ZN17QArrayDataPointerIDsE5derefEv.exit.i.i8

_ZN17QArrayDataPointerIDsE5derefEv.exit.i.i8:     ; preds = %19
  %22 = atomicrmw sub ptr %21, i32 1 seq_cst, align 4
  %.not.i.i9 = icmp eq i32 %22, 1
  br i1 %.not.i.i9, label %23, label %_ZN7QStringD2Ev.exit10

23:                                               ; preds = %_ZN17QArrayDataPointerIDsE5derefEv.exit.i.i8
  %24 = load ptr, ptr %4, align 8
  call void @_ZN10QArrayData10deallocateEPS_xx(ptr noundef %24, i64 noundef 2, i64 noundef 8) #20
  br label %_ZN7QStringD2Ev.exit10

_ZN7QStringD2Ev.exit10:                           ; preds = %23, %_ZN17QArrayDataPointerIDsE5derefEv.exit.i.i8, %19, %17
  %.pn = phi { ptr, i32 } [ %18, %17 ], [ %20, %19 ], [ %20, %_ZN17QArrayDataPointerIDsE5derefEv.exit.i.i8 ], [ %20, %23 ]
  call void @llvm.lifetime.end.p0(i64 24, ptr nonnull %4) #20
  call void @_ZN7QStringD2Ev(ptr noundef nonnull align 8 dereferenceable_or_null(24) %8) #20
  call void @_ZN7QActionD2Ev(ptr noundef align 8 dereferenceable_or_null(16) %0) #20
  resume { ptr, i32 } %.pn
}